target datalayout = "e-m:e-p270:32:32-p271:32:32-p272:64:64-i64:64-i128:128-f80:128-n8:16:32:64-S128"
target triple = "x86_64-pc-linux-gnu"

%struct.ssl_connection_st = type { %struct.ssl_st, ptr, i32, ptr, ptr, ptr, i32, ptr, i32, i32, i32, i32, %struct.OSSL_TIME, %struct.OSSL_TIME, %struct.ossl_statem_st, i32, ptr, ptr, i64, i64, i64, %struct.ossl_quic_tls_callbacks_st, ptr, ptr, %struct.anon, ptr, ptr, ptr, i32, ptr, %struct.ssl_dane_st, ptr, ptr, ptr, ptr, i32, [64 x i8], [64 x i8], [64 x i8], [64 x i8], [64 x i8], [64 x i8], [64 x i8], [64 x i8], [64 x i8], [64 x i8], [64 x i8], [64 x i8], ptr, [64 x i8], i64, i32, i64, [32 x i8], ptr, ptr, ptr, i64, ptr, [32 x i8], i64, i32, ptr, ptr, i32, i32, ptr, ptr, ptr, ptr, ptr, i64, ptr, ptr, i64, i32, i32, i32, i64, i32, i32, i64, i64, i64, %struct.anon.1, ptr, i32, ptr, ptr, ptr, i32, ptr, ptr, ptr, i32, i32, i32, i32, ptr, i64, i32, ptr, %struct.srp_ctx_st, ptr, %struct.record_layer_st, ptr, ptr, ptr, ptr, i64, i32, i32, i32, i64, i64, i64, ptr, ptr, ptr, ptr, ptr, i64, ptr, i64, ptr, i64 }
%struct.ssl_st = type { i32, ptr, ptr, ptr, %struct.CRYPTO_REF_COUNT, ptr, %struct.crypto_ex_data_st }
%struct.CRYPTO_REF_COUNT = type { i32 }
%struct.crypto_ex_data_st = type { ptr, ptr }
%struct.OSSL_TIME = type { i64 }
%struct.ossl_statem_st = type { i32, i32, i32, i32, i32, i32, i32, i32, i32, i32, i32, i32, i32, ptr, ptr, ptr, i8 }
%struct.ossl_quic_tls_callbacks_st = type { ptr, ptr, ptr, ptr, ptr, ptr }
%struct.anon = type { i64, [32 x i8], [32 x i8], ptr, ptr, i32, i32, i32, i32, [2 x i8], i32, i32, i32, i32, %struct.anon.0, [64 x i8], i64, [64 x i8], i64, i32, i32, ptr, i64, ptr, i64, i32, i8, i8, i16, ptr, i16 }
%struct.anon.0 = type { [128 x i8], i64, [128 x i8], i64, i64, i32, ptr, ptr, [4 x ptr], [4 x i16], i64, i32, ptr, i64, ptr, i64, ptr, ptr, ptr, i32, i64, ptr, i32, ptr, i64, ptr, i64, ptr, i64, ptr, ptr, ptr, ptr, i64, i64, ptr, ptr, i32, i32, i32, i32 }
%struct.ssl_dane_st = type { ptr, ptr, ptr, ptr, ptr, i32, i32, i32, i64 }
%struct.anon.1 = type { [29 x i8], ptr, ptr, ptr, i32, ptr, i16, i32, %struct.anon.2, i32, i32, i64, ptr, i64, ptr, i64, ptr, i64, ptr, i64, ptr, i64, ptr, ptr, ptr, ptr, ptr, ptr, ptr, i64, ptr, i64, i32, i32, i32, i32, ptr, i64, i32, i8, i32, [4 x i32], i32, i8, i8, i8, i8 }
%struct.anon.2 = type { ptr, ptr, ptr, i64 }
%struct.srp_ctx_st = type { ptr, ptr, ptr, ptr, ptr, ptr, ptr, ptr, ptr, ptr, ptr, ptr, ptr, ptr, i32, i64 }
%struct.record_layer_st = type { ptr, ptr, ptr, ptr, ptr, ptr, ptr, ptr, i64, i32, i64, [4 x i8], i64, i64, i8, ptr, i32, ptr, ptr, ptr, i64, i64, i64, i64, [32 x %struct.tls_record_st] }
%struct.tls_record_st = type { ptr, i32, i8, ptr, ptr, i64, i64, i16, [8 x i8] }
%struct.ssl_method_st = type { i32, i32, i64, ptr, ptr, ptr, ptr, ptr, ptr, ptr, ptr, ptr, ptr, ptr, ptr, ptr, ptr, ptr, ptr, ptr, ptr, ptr, ptr, ptr, ptr, ptr, ptr, ptr, ptr, ptr, ptr, ptr }
%struct.ssl3_enc_method = type { ptr, ptr, ptr, ptr, ptr, i64, ptr, i64, ptr, ptr, i32, ptr, ptr, ptr }
%struct.ssl_session_st = type { i32, i64, [64 x i8], [512 x i8], i64, [32 x i8], i64, [32 x i8], ptr, ptr, i32, ptr, ptr, ptr, i64, %struct.OSSL_TIME, %struct.OSSL_TIME, %struct.OSSL_TIME, i32, ptr, i64, i32, %struct.crypto_ex_data_st, %struct.anon.3, ptr, ptr, i64, i32, ptr, ptr, ptr, %struct.CRYPTO_REF_COUNT }
%struct.anon.3 = type { ptr, ptr, i64, i64, i32, i32, ptr, i64, i8 }

; Function Attrs: nounwind uwtable
define ptr @SSL_get0_group_name(ptr noundef %0) #0 {
  %2 = alloca ptr, align 8
  %3 = alloca ptr, align 8
  %4 = alloca ptr, align 8
  %5 = alloca i32, align 4
  %6 = alloca i32, align 4
  store ptr %0, ptr %3, align 8, !tbaa !23
  call void @llvm.lifetime.start.p0(i64 8, ptr %4) #10
  %7 = load ptr, ptr %3, align 8, !tbaa !23
  %8 = icmp eq ptr %7, null
  br i1 %8, label %9, label %10

9:                                                ; preds = %1
  br label %31

10:                                               ; preds = %1
  %11 = load ptr, ptr %3, align 8, !tbaa !23
  %12 = getelementptr inbounds nuw %struct.ssl_st, ptr %11, i32 0, i32 0
  %13 = load i32, ptr %12, align 8, !tbaa !25
  %14 = icmp eq i32 %13, 0
  br i1 %14, label %15, label %17

15:                                               ; preds = %10
  %16 = load ptr, ptr %3, align 8, !tbaa !23
  br label %29

17:                                               ; preds = %10
  %18 = load ptr, ptr %3, align 8, !tbaa !23
  %19 = getelementptr inbounds nuw %struct.ssl_st, ptr %18, i32 0, i32 0
  %20 = load i32, ptr %19, align 8, !tbaa !25
  %21 = and i32 %20, 128
  %22 = icmp ne i32 %21, 0
  br i1 %22, label %23, label %26

23:                                               ; preds = %17
  %24 = load ptr, ptr %3, align 8, !tbaa !23
  %25 = call ptr @ossl_quic_obj_get0_handshake_layer(ptr noundef %24)
  br label %27

26:                                               ; preds = %17
  br label %27

27:                                               ; preds = %26, %23
  %28 = phi ptr [ %25, %23 ], [ null, %26 ]
  br label %29

29:                                               ; preds = %27, %15
  %30 = phi ptr [ %16, %15 ], [ %28, %27 ]
  br label %31

31:                                               ; preds = %29, %9
  %32 = phi ptr [ null, %9 ], [ %30, %29 ]
  store ptr %32, ptr %4, align 8, !tbaa !13
  call void @llvm.lifetime.start.p0(i64 4, ptr %5) #10
  %33 = load ptr, ptr %4, align 8, !tbaa !13
  %34 = icmp eq ptr %33, null
  br i1 %34, label %35, label %36

35:                                               ; preds = %31
  store ptr null, ptr %2, align 8
  store i32 1, ptr %6, align 4
  br label %89

36:                                               ; preds = %31
  %37 = load ptr, ptr %4, align 8, !tbaa !13
  %38 = getelementptr inbounds nuw %struct.ssl_connection_st, ptr %37, i32 0, i32 0
  %39 = getelementptr inbounds nuw %struct.ssl_st, ptr %38, i32 0, i32 3
  %40 = load ptr, ptr %39, align 8, !tbaa !147
  %41 = getelementptr inbounds nuw %struct.ssl_method_st, ptr %40, i32 0, i32 28
  %42 = load ptr, ptr %41, align 8, !tbaa !148
  %43 = getelementptr inbounds nuw %struct.ssl3_enc_method, ptr %42, i32 0, i32 10
  %44 = load i32, ptr %43, align 8, !tbaa !149
  %45 = and i32 %44, 8
  %46 = icmp ne i32 %45, 0
  br i1 %46, label %76, label %47

47:                                               ; preds = %36
  %48 = load ptr, ptr %4, align 8, !tbaa !13
  %49 = getelementptr inbounds nuw %struct.ssl_connection_st, ptr %48, i32 0, i32 0
  %50 = getelementptr inbounds nuw %struct.ssl_st, ptr %49, i32 0, i32 3
  %51 = load ptr, ptr %50, align 8, !tbaa !147
  %52 = getelementptr inbounds nuw %struct.ssl_method_st, ptr %51, i32 0, i32 0
  %53 = load i32, ptr %52, align 8, !tbaa !151
  %54 = icmp sge i32 %53, 772
  br i1 %54, label %55, label %76

55:                                               ; preds = %47
  %56 = load ptr, ptr %4, align 8, !tbaa !13
  %57 = getelementptr inbounds nuw %struct.ssl_connection_st, ptr %56, i32 0, i32 0
  %58 = getelementptr inbounds nuw %struct.ssl_st, ptr %57, i32 0, i32 3
  %59 = load ptr, ptr %58, align 8, !tbaa !147
  %60 = getelementptr inbounds nuw %struct.ssl_method_st, ptr %59, i32 0, i32 0
  %61 = load i32, ptr %60, align 8, !tbaa !151
  %62 = icmp ne i32 %61, 65536
  br i1 %62, label %63, label %76

63:                                               ; preds = %55
  %64 = load ptr, ptr %4, align 8, !tbaa !13
  %65 = getelementptr inbounds nuw %struct.ssl_connection_st, ptr %64, i32 0, i32 24
  %66 = getelementptr inbounds nuw %struct.anon, ptr %65, i32 0, i32 27
  %67 = load i8, ptr %66, align 1, !tbaa !152
  %68 = sext i8 %67 to i32
  %69 = icmp ne i32 %68, 0
  br i1 %69, label %70, label %76

70:                                               ; preds = %63
  %71 = load ptr, ptr %4, align 8, !tbaa !13
  %72 = getelementptr inbounds nuw %struct.ssl_connection_st, ptr %71, i32 0, i32 24
  %73 = getelementptr inbounds nuw %struct.anon, ptr %72, i32 0, i32 28
  %74 = load i16, ptr %73, align 2, !tbaa !153
  %75 = zext i16 %74 to i32
  store i32 %75, ptr %5, align 4, !tbaa !18
  br label %82

76:                                               ; preds = %63, %55, %47, %36
  %77 = load ptr, ptr %4, align 8, !tbaa !13
  %78 = getelementptr inbounds nuw %struct.ssl_connection_st, ptr %77, i32 0, i32 54
  %79 = load ptr, ptr %78, align 8, !tbaa !135
  %80 = getelementptr inbounds nuw %struct.ssl_session_st, ptr %79, i32 0, i32 21
  %81 = load i32, ptr %80, align 8, !tbaa !154
  store i32 %81, ptr %5, align 4, !tbaa !18
  br label %82

82:                                               ; preds = %76, %70
  %83 = load ptr, ptr %3, align 8, !tbaa !23
  %84 = getelementptr inbounds nuw %struct.ssl_st, ptr %83, i32 0, i32 1
  %85 = load ptr, ptr %84, align 8, !tbaa !140
  %86 = load i32, ptr %5, align 4, !tbaa !18
  %87 = trunc i32 %86 to i16
  %88 = call ptr @tls1_group_id2name(ptr noundef %85, i16 noundef zeroext %87)
  store ptr %88, ptr %2, align 8
  store i32 1, ptr %6, align 4
  br label %89

89:                                               ; preds = %82, %35
  call void @llvm.lifetime.end.p0(i64 4, ptr %5) #10
  call void @llvm.lifetime.end.p0(i64 8, ptr %4) #10
  %90 = load ptr, ptr %2, align 8
  ret ptr %90
}