; Function Attrs: nounwind uwtable
define ptr @SSL_get0_group_name(ptr noundef %0) local_unnamed_addr #4 {
  %2 = icmp eq ptr %0, null
  br i1 %2, label %.thread, label %3

3:                                                ; preds = %1
  %4 = load i32, ptr %0, align 8, !tbaa !10
  %5 = icmp eq i32 %4, 0
  br i1 %5, label %.thread22, label %6

6:                                                ; preds = %3
  %7 = and i32 %4, 128
  %.not = icmp eq i32 %7, 0
  br i1 %.not, label %.thread, label %8

8:                                                ; preds = %6
  %9 = tail call ptr @ossl_quic_obj_get0_handshake_layer(ptr noundef nonnull %0) #18
  %10 = icmp eq ptr %9, null
  br i1 %10, label %.thread, label %.thread22

.thread22:                                        ; preds = %3, %8
  %11 = phi ptr [ %9, %8 ], [ %0, %3 ]
  %12 = getelementptr inbounds nuw i8, ptr %11, i64 24
  %13 = load ptr, ptr %12, align 8, !tbaa !133
  %14 = getelementptr inbounds nuw i8, ptr %13, i64 216
  %15 = load ptr, ptr %14, align 8, !tbaa !134
  %16 = getelementptr inbounds nuw i8, ptr %15, i64 80
  %17 = load i32, ptr %16, align 8, !tbaa !135
  %18 = and i32 %17, 8
  %.not19 = icmp eq i32 %18, 0
  br i1 %.not19, label %19, label %28

19:                                               ; preds = %.thread22
  %20 = load i32, ptr %13, align 8, !tbaa !137
  %21 = icmp slt i32 %20, 772
  %.not20 = icmp eq i32 %20, 65536
  %or.cond = or i1 %21, %.not20
  br i1 %or.cond, label %28, label %22

22:                                               ; preds = %19
  %23 = getelementptr inbounds nuw i8, ptr %11, i64 1245
  %24 = load i8, ptr %23, align 1, !tbaa !138
  %.not21 = icmp eq i8 %24, 0
  br i1 %.not21, label %28, label %25

25:                                               ; preds = %22
  %26 = getelementptr inbounds nuw i8, ptr %11, i64 1246
  %27 = load i16, ptr %26, align 2, !tbaa !139
  br label %34

28:                                               ; preds = %22, %19, %.thread22
  %29 = getelementptr inbounds nuw i8, ptr %11, i64 2304
  %30 = load ptr, ptr %29, align 8, !tbaa !124
  %31 = getelementptr inbounds nuw i8, ptr %30, i64 776
  %32 = load i32, ptr %31, align 8, !tbaa !140
  %33 = trunc i32 %32 to i16
  br label %34

34:                                               ; preds = %28, %25
  %.0 = phi i16 [ %33, %28 ], [ %27, %25 ]
  %35 = getelementptr inbounds nuw i8, ptr %0, i64 8
  %36 = load ptr, ptr %35, align 8, !tbaa !127
  %37 = tail call ptr @tls1_group_id2name(ptr noundef %36, i16 noundef zeroext %.0) #18
  br label %.thread

.thread:                                          ; preds = %6, %1, %8, %34
  %.014 = phi ptr [ %37, %34 ], [ null, %8 ], [ null, %1 ], [ null, %6 ]
  ret ptr %.014
}